; Function Attrs: mustprogress uwtable
define dso_local void @_ZN4i18n12phonenumbers15PhoneNumberDesc8CopyFromERKS1_(ptr noundef nonnull align 8 dereferenceable(72) %0, ptr noundef nonnull align 8 dereferenceable(72) %1) local_unnamed_addr #3 align 2 {
  %3 = icmp eq ptr %1, %0
  br i1 %3, label %28, label %4

4:                                                ; preds = %2
  %5 = getelementptr inbounds i8, ptr %0, i64 24
  tail call void @_ZN6google8protobuf13RepeatedFieldIiE5ClearEv(ptr noundef nonnull align 8 dereferenceable(16) %5)
  %6 = getelementptr inbounds i8, ptr %0, i64 40
  tail call void @_ZN6google8protobuf13RepeatedFieldIiE5ClearEv(ptr noundef nonnull align 8 dereferenceable(16) %6)
  %7 = getelementptr inbounds i8, ptr %0, i64 16
  %8 = load i32, ptr %7, align 8
  %9 = and i32 %8, 3
  %.not.i = icmp eq i32 %9, 0
  br i1 %.not.i, label %20, label %10

10:                                               ; preds = %4
  %11 = and i32 %8, 1
  %.not9.i = icmp eq i32 %11, 0
  br i1 %.not9.i, label %15, label %12

12:                                               ; preds = %10
  %13 = getelementptr inbounds i8, ptr %0, i64 56
  %14 = load ptr, ptr %13, align 8
  tail call void @_ZNSt7__cxx1112basic_stringIcSt11char_traitsIcESaIcEE5clearEv(ptr noundef nonnull align 8 dereferenceable(32) %14) #21
  br label %15

15:                                               ; preds = %12, %10
  %16 = and i32 %8, 2
  %.not10.i = icmp eq i32 %16, 0
  br i1 %.not10.i, label %20, label %17

17:                                               ; preds = %15
  %18 = getelementptr inbounds i8, ptr %0, i64 64
  %19 = load ptr, ptr %18, align 8
  tail call void @_ZNSt7__cxx1112basic_stringIcSt11char_traitsIcESaIcEE5clearEv(ptr noundef nonnull align 8 dereferenceable(32) %19) #21
  br label %20

20:                                               ; preds = %17, %15, %4
  store i32 0, ptr %7, align 8
  %21 = getelementptr inbounds i8, ptr %0, i64 8
  %22 = load ptr, ptr %21, align 8
  %23 = ptrtoint ptr %22 to i64
  %24 = and i64 %23, 1
  %.not11.i = icmp eq i64 %24, 0
  br i1 %.not11.i, label %_ZN4i18n12phonenumbers15PhoneNumberDesc5ClearEv.exit, label %_ZN6google8protobuf8internal16InternalMetadata7DoClearINSt7__cxx1112basic_stringIcSt11char_traitsIcESaIcEEEEEvv.exit.i

_ZN6google8protobuf8internal16InternalMetadata7DoClearINSt7__cxx1112basic_stringIcSt11char_traitsIcESaIcEEEEEvv.exit.i: ; preds = %20
  %25 = and i64 %23, -2
  %26 = inttoptr i64 %25 to ptr
  %27 = getelementptr inbounds i8, ptr %26, i64 8
  tail call void @_ZNSt7__cxx1112basic_stringIcSt11char_traitsIcESaIcEE5clearEv(ptr noundef nonnull align 8 dereferenceable(32) %27) #21
  br label %_ZN4i18n12phonenumbers15PhoneNumberDesc5ClearEv.exit

_ZN4i18n12phonenumbers15PhoneNumberDesc5ClearEv.exit: ; preds = %20, %_ZN6google8protobuf8internal16InternalMetadata7DoClearINSt7__cxx1112basic_stringIcSt11char_traitsIcESaIcEEEEEvv.exit.i
  tail call void @_ZN4i18n12phonenumbers15PhoneNumberDesc9MergeFromERKS1_(ptr noundef nonnull align 8 dereferenceable(72) %0, ptr noundef nonnull align 8 dereferenceable(72) %1)
  br label %28

28:                                               ; preds = %2, %_ZN4i18n12phonenumbers15PhoneNumberDesc5ClearEv.exit
  ret void
}